target datalayout = "e-m:e-p270:32:32-p271:32:32-p272:64:64-i64:64-i128:128-f80:128-n8:16:32:64-S128"
target triple = "x86_64-pc-linux-gnu"

%struct.Gia_Man_t_ = type { ptr, ptr, i32, i32, i32, i32, ptr, ptr, i32, i32, i32, ptr, ptr, %struct.Vec_Int_t_, %struct.Vec_Int_t_, i32, i32, i32, %struct.Vec_Int_t_, ptr, ptr, ptr, i32, i32, i32, i32, ptr, ptr, ptr, ptr, ptr, i32, i32, ptr, i32, ptr, ptr, ptr, ptr, ptr, ptr, ptr, ptr, ptr, ptr, ptr, ptr, ptr, ptr, ptr, ptr, ptr, ptr, %struct.Vec_Int_t_, %struct.Vec_Int_t_, ptr, ptr, ptr, ptr, ptr, ptr, ptr, ptr, ptr, ptr, ptr, ptr, ptr, ptr, ptr, ptr, ptr, ptr, ptr, ptr, ptr, i32, float, float, ptr, ptr, i32, ptr, ptr, ptr, ptr, ptr, ptr, ptr, ptr, ptr, ptr, ptr, ptr, ptr, ptr, ptr, i64, i64, ptr, ptr, i32, i32, i32, i32, i32, i32, i32, i32, i32, i32, i32, i32, ptr, ptr, ptr, ptr, ptr, ptr, ptr, ptr, i32, i32, i32, ptr, i32, i32, ptr, ptr, ptr, ptr, ptr, ptr, i32, i32, ptr, %struct.Vec_Int_t_, %struct.Vec_Int_t_, %struct.Vec_Int_t_, ptr, ptr, ptr, i32, i32, i32, i32, ptr, ptr, ptr, ptr, ptr }
%struct.Vec_Int_t_ = type { i32, i32, ptr }
%struct.Vec_Wrd_t_ = type { i32, i32, ptr }

@Truth = internal global [8 x i64] [i64 -6148914691236517206, i64 -3689348814741910324, i64 -1085102592571150096, i64 -71777214294589696, i64 -281470681808896, i64 -4294967296, i64 0, i64 -1], align 16

; Function Attrs: inlinehint nounwind uwtable
define internal i32 @Gia_ObjId(ptr noundef %0, ptr noundef %1) #3 {
  %3 = alloca ptr, align 8
  %4 = alloca ptr, align 8
  store ptr %0, ptr %3, align 8, !tbaa !3
  store ptr %1, ptr %4, align 8, !tbaa !77
  %5 = load ptr, ptr %4, align 8, !tbaa !77
  %6 = load ptr, ptr %3, align 8, !tbaa !3
  %7 = getelementptr inbounds nuw %struct.Gia_Man_t_, ptr %6, i32 0, i32 6
  %8 = load ptr, ptr %7, align 8, !tbaa !79
  %9 = ptrtoint ptr %5 to i64
  %10 = ptrtoint ptr %8 to i64
  %11 = sub i64 %9, %10
  %12 = sdiv exact i64 %11, 12
  %13 = trunc i64 %12 to i32
  ret i32 %13
}

; Function Attrs: inlinehint nounwind uwtable
define internal void @Vec_WrdWriteEntry(ptr noundef %0, i32 noundef %1, i64 noundef %2) #3 {
  %4 = alloca ptr, align 8
  %5 = alloca i32, align 4
  %6 = alloca i64, align 8
  store ptr %0, ptr %4, align 8, !tbaa !55
  store i32 %1, ptr %5, align 4, !tbaa !54
  store i64 %2, ptr %6, align 8, !tbaa !61
  %7 = load i64, ptr %6, align 8, !tbaa !61
  %8 = load ptr, ptr %4, align 8, !tbaa !55
  %9 = getelementptr inbounds nuw %struct.Vec_Wrd_t_, ptr %8, i32 0, i32 2
  %10 = load ptr, ptr %9, align 8, !tbaa !60
  %11 = load i32, ptr %5, align 4, !tbaa !54
  %12 = sext i32 %11 to i64
  %13 = getelementptr inbounds i64, ptr %10, i64 %12
  store i64 %7, ptr %13, align 8, !tbaa !61
  ret void
}

; Function Attrs: inlinehint nounwind uwtable
define internal void @Gia_ObjSetTravIdCurrentId(ptr noundef %0, i32 noundef %1) #3 {
  %3 = alloca ptr, align 8
  %4 = alloca i32, align 4
  store ptr %0, ptr %3, align 8, !tbaa !3
  store i32 %1, ptr %4, align 4, !tbaa !54
  %5 = load ptr, ptr %3, align 8, !tbaa !3
  %6 = getelementptr inbounds nuw %struct.Gia_Man_t_, ptr %5, i32 0, i32 24
  %7 = load i32, ptr %6, align 8, !tbaa !82
  %8 = load ptr, ptr %3, align 8, !tbaa !3
  %9 = getelementptr inbounds nuw %struct.Gia_Man_t_, ptr %8, i32 0, i32 80
  %10 = load ptr, ptr %9, align 8, !tbaa !81
  %11 = load i32, ptr %4, align 4, !tbaa !54
  %12 = sext i32 %11 to i64
  %13 = getelementptr inbounds i32, ptr %10, i64 %12
  store i32 %7, ptr %13, align 4, !tbaa !54
  ret void
}

; Function Attrs: inlinehint nounwind uwtable
define internal i32 @Vec_IntEntry(ptr noundef %0, i32 noundef %1) #3 {
  %3 = alloca ptr, align 8
  %4 = alloca i32, align 4
  store ptr %0, ptr %3, align 8, !tbaa !62
  store i32 %1, ptr %4, align 4, !tbaa !54
  %5 = load ptr, ptr %3, align 8, !tbaa !62
  %6 = getelementptr inbounds nuw %struct.Vec_Int_t_, ptr %5, i32 0, i32 2
  %7 = load ptr, ptr %6, align 8, !tbaa !64
  %8 = load i32, ptr %4, align 4, !tbaa !54
  %9 = sext i32 %8 to i64
  %10 = getelementptr inbounds i32, ptr %7, i64 %9
  %11 = load i32, ptr %10, align 4, !tbaa !54
  ret i32 %11
}

; Function Attrs: inlinehint nounwind uwtable
define internal i32 @Vec_IntSize(ptr noundef %0) #3 {
  %2 = alloca ptr, align 8
  store ptr %0, ptr %2, align 8, !tbaa !62
  %3 = load ptr, ptr %2, align 8, !tbaa !62
  %4 = getelementptr inbounds nuw %struct.Vec_Int_t_, ptr %3, i32 0, i32 1
  %5 = load i32, ptr %4, align 4, !tbaa !63
  ret i32 %5
}

; Function Attrs: nounwind uwtable
define i64 @Shr_ManComputeTruth6(ptr noundef %0, ptr noundef %1, ptr noundef %2, ptr noundef %3) #0 {
  %5 = alloca ptr, align 8
  %6 = alloca ptr, align 8
  %7 = alloca ptr, align 8
  %8 = alloca ptr, align 8
  %9 = alloca i32, align 4
  %10 = alloca i32, align 4
  store ptr %0, ptr %5, align 8, !tbaa !3
  store ptr %1, ptr %6, align 8, !tbaa !77
  store ptr %2, ptr %7, align 8, !tbaa !62
  store ptr %3, ptr %8, align 8, !tbaa !55
  call void @llvm.lifetime.start.p0(i64 4, ptr %9) #12
  call void @llvm.lifetime.start.p0(i64 4, ptr %10) #12
  %11 = load ptr, ptr %5, align 8, !tbaa !3
  call void @Gia_ManIncrementTravId(ptr noundef %11)
  store i32 0, ptr %9, align 4, !tbaa !54
  br label %12

12:                                               ; preds = %32, %4
  %13 = load i32, ptr %9, align 4, !tbaa !54
  %14 = load ptr, ptr %7, align 8, !tbaa !62
  %15 = call i32 @Vec_IntSize(ptr noundef %14)
  %16 = icmp slt i32 %13, %15
  br i1 %16, label %17, label %21

17:                                               ; preds = %12
  %18 = load ptr, ptr %7, align 8, !tbaa !62
  %19 = load i32, ptr %9, align 4, !tbaa !54
  %20 = call i32 @Vec_IntEntry(ptr noundef %18, i32 noundef %19)
  store i32 %20, ptr %10, align 4, !tbaa !54
  br label %21

21:                                               ; preds = %17, %12
  %22 = phi i1 [ false, %12 ], [ true, %17 ]
  br i1 %22, label %23, label %35

23:                                               ; preds = %21
  %24 = load ptr, ptr %5, align 8, !tbaa !3
  %25 = load i32, ptr %10, align 4, !tbaa !54
  call void @Gia_ObjSetTravIdCurrentId(ptr noundef %24, i32 noundef %25)
  %26 = load ptr, ptr %8, align 8, !tbaa !55
  %27 = load i32, ptr %10, align 4, !tbaa !54
  %28 = load i32, ptr %9, align 4, !tbaa !54
  %29 = sext i32 %28 to i64
  %30 = getelementptr inbounds [8 x i64], ptr @Truth, i64 0, i64 %29
  %31 = load i64, ptr %30, align 8, !tbaa !61
  call void @Vec_WrdWriteEntry(ptr noundef %26, i32 noundef %27, i64 noundef %31)
  br label %32

32:                                               ; preds = %23
  %33 = load i32, ptr %9, align 4, !tbaa !54
  %34 = add nsw i32 %33, 1
  store i32 %34, ptr %9, align 4, !tbaa !54
  br label %12, !llvm.loop !83

35:                                               ; preds = %21
  %36 = load ptr, ptr %5, align 8, !tbaa !3
  %37 = load ptr, ptr %5, align 8, !tbaa !3
  %38 = load ptr, ptr %6, align 8, !tbaa !77
  %39 = call i32 @Gia_ObjId(ptr noundef %37, ptr noundef %38)
  %40 = load ptr, ptr %8, align 8, !tbaa !55
  %41 = call i64 @Shr_ManComputeTruth6_rec(ptr noundef %36, i32 noundef %39, ptr noundef %40)
  call void @llvm.lifetime.end.p0(i64 4, ptr %10) #12
  call void @llvm.lifetime.end.p0(i64 4, ptr %9) #12
  ret i64 %41
}