; Function Attrs: nounwind uwtable
define i64 @Shr_ManComputeTruth6(ptr noundef %0, ptr noundef %1, ptr noundef readonly captures(none) %2, ptr noundef %3) local_unnamed_addr #0 {
  tail call void @Gia_ManIncrementTravId(ptr noundef %0) #20
  %5 = getelementptr i8, ptr %2, i64 4
  %.val19 = load i32, ptr %5, align 4, !tbaa !45
  %6 = icmp sgt i32 %.val19, 0
  br i1 %6, label %.lr.ph, label %.critedge

.lr.ph:                                           ; preds = %4
  %7 = getelementptr i8, ptr %2, i64 8
  %.val14 = load ptr, ptr %7, align 8, !tbaa !44
  %8 = getelementptr i8, ptr %0, i64 176
  %9 = getelementptr i8, ptr %0, i64 616
  %.val17 = load ptr, ptr %9, align 8, !tbaa !71
  %10 = getelementptr i8, ptr %3, i64 8
  %.val18 = load ptr, ptr %10, align 8, !tbaa !39
  %.val16.pre = load i32, ptr %8, align 8, !tbaa !70
  br label %11

11:                                               ; preds = %.lr.ph, %11
  %indvars.iv = phi i64 [ 0, %.lr.ph ], [ %indvars.iv.next, %11 ]
  %12 = getelementptr inbounds nuw i32, ptr %.val14, i64 %indvars.iv
  %13 = load i32, ptr %12, align 4, !tbaa !64
  %14 = sext i32 %13 to i64
  %15 = getelementptr inbounds i32, ptr %.val17, i64 %14
  store i32 %.val16.pre, ptr %15, align 4, !tbaa !64
  %16 = getelementptr inbounds nuw [8 x i64], ptr @Truth, i64 0, i64 %indvars.iv
  %17 = load i64, ptr %16, align 8, !tbaa !42
  %18 = getelementptr inbounds i64, ptr %.val18, i64 %14
  store i64 %17, ptr %18, align 8, !tbaa !42
  %indvars.iv.next = add nuw nsw i64 %indvars.iv, 1
  %.val = load i32, ptr %5, align 4, !tbaa !45
  %19 = sext i32 %.val to i64
  %20 = icmp slt i64 %indvars.iv.next, %19
  br i1 %20, label %11, label %.critedge, !llvm.loop !72

.critedge:                                        ; preds = %11, %4
  %21 = getelementptr i8, ptr %0, i64 32
  %.val15 = load ptr, ptr %21, align 8, !tbaa !67
  %22 = ptrtoint ptr %1 to i64
  %23 = ptrtoint ptr %.val15 to i64
  %24 = sub i64 %22, %23
  %25 = sdiv exact i64 %24, 12
  %26 = trunc i64 %25 to i32
  %27 = tail call i64 @Shr_ManComputeTruth6_rec(ptr noundef %0, i32 noundef %26, ptr noundef %3)
  ret i64 %27
}